; Function Attrs: mustprogress uwtable
define internal noundef zeroext i1 @_ZNK32pxrInternal_v0_24__pxrReserved__12_GLOBAL__N_120_DispatchingResolver23_IsContextDependentPathERKNSt7__cxx1112basic_stringIcSt11char_traitsIcESaIcEEE(ptr nocapture noundef nonnull readonly align 8 dereferenceable(320) %0, ptr noundef nonnull align 8 dereferenceable(32) %1) unnamed_addr #0 align 2 personality ptr @__gxx_personality_v0 {
  %3 = alloca ptr, align 8
  %4 = alloca %"struct.std::pair.236", align 8
  store ptr null, ptr %3, align 8
  %5 = call fastcc noundef ptr @_ZNK32pxrInternal_v0_24__pxrReserved__12_GLOBAL__N_120_DispatchingResolver15_GetURIResolverERKNSt7__cxx1112basic_stringIcSt11char_traitsIcESaIcEEEPPKNS0_13_ResolverInfoE(ptr noundef nonnull readonly align 8 dereferenceable(320) %0, ptr noundef nonnull align 8 dereferenceable(32) %1, ptr noundef nonnull %3)
  %.not.i = icmp eq ptr %5, null
  br i1 %.not.i, label %6, label %_ZNK32pxrInternal_v0_24__pxrReserved__12_GLOBAL__N_120_DispatchingResolver12_GetResolverERKNSt7__cxx1112basic_stringIcSt11char_traitsIcESaIcEEEPPKNS0_13_ResolverInfoE.exit

6:                                                ; preds = %2
  %7 = getelementptr inbounds nuw i8, ptr %0, i64 8
  %.val11.i = load ptr, ptr %7, align 8
  %8 = getelementptr inbounds nuw i8, ptr %.val11.i, i64 88
  store ptr %8, ptr %3, align 8
  %9 = call fastcc noundef ptr @_ZN32pxrInternal_v0_24__pxrReserved__12_GLOBAL__N_115_PluginResolverINS_10ArResolverENS_22Ar_ResolverFactoryBaseEE3GetEv(ptr noundef nonnull align 8 dereferenceable(88) %.val11.i)
  br label %_ZNK32pxrInternal_v0_24__pxrReserved__12_GLOBAL__N_120_DispatchingResolver12_GetResolverERKNSt7__cxx1112basic_stringIcSt11char_traitsIcESaIcEEEPPKNS0_13_ResolverInfoE.exit

_ZNK32pxrInternal_v0_24__pxrReserved__12_GLOBAL__N_120_DispatchingResolver12_GetResolverERKNSt7__cxx1112basic_stringIcSt11char_traitsIcESaIcEEEPPKNS0_13_ResolverInfoE.exit: ; preds = %2, %6
  %.0.i = phi ptr [ %9, %6 ], [ %5, %2 ]
  %10 = load ptr, ptr %3, align 8
  %11 = getelementptr inbounds nuw i8, ptr %10, i64 49
  %12 = load i8, ptr %11, align 1
  %13 = trunc i8 %12 to i1
  br i1 %13, label %14, label %30

14:                                               ; preds = %_ZNK32pxrInternal_v0_24__pxrReserved__12_GLOBAL__N_120_DispatchingResolver12_GetResolverERKNSt7__cxx1112basic_stringIcSt11char_traitsIcESaIcEEEPPKNS0_13_ResolverInfoE.exit
  %15 = call noundef zeroext i1 @_ZN32pxrInternal_v0_24__pxrReserved__23ArIsPackageRelativePathERKNSt7__cxx1112basic_stringIcSt11char_traitsIcESaIcEEE(ptr noundef nonnull align 8 dereferenceable(32) %1)
  br i1 %15, label %16, label %25

16:                                               ; preds = %14
  call void @_ZN32pxrInternal_v0_24__pxrReserved__31ArSplitPackageRelativePathOuterERKNSt7__cxx1112basic_stringIcSt11char_traitsIcESaIcEEE(ptr dead_on_unwind nonnull writable sret(%"struct.std::pair.236") align 8 %4, ptr noundef nonnull align 8 dereferenceable(32) %1)
  %17 = load ptr, ptr %.0.i, align 8
  %18 = getelementptr inbounds i8, ptr %17, i64 104
  %19 = load ptr, ptr %18, align 8
  %20 = invoke noundef zeroext i1 %19(ptr noundef nonnull align 8 dereferenceable(8) %.0.i, ptr noundef nonnull align 8 dereferenceable(32) %4)
          to label %_ZNK32pxrInternal_v0_24__pxrReserved__10ArResolver22IsContextDependentPathERKNSt7__cxx1112basic_stringIcSt11char_traitsIcESaIcEEE.exit unwind label %22

_ZNK32pxrInternal_v0_24__pxrReserved__10ArResolver22IsContextDependentPathERKNSt7__cxx1112basic_stringIcSt11char_traitsIcESaIcEEE.exit: ; preds = %16
  %21 = getelementptr inbounds nuw i8, ptr %4, i64 32
  call void @_ZNSt7__cxx1112basic_stringIcSt11char_traitsIcESaIcEED1Ev(ptr noundef nonnull align 8 dereferenceable(32) %21) #15
  call void @_ZNSt7__cxx1112basic_stringIcSt11char_traitsIcESaIcEED1Ev(ptr noundef nonnull align 8 dereferenceable(32) %4) #15
  br label %30

22:                                               ; preds = %16
  %23 = landingpad { ptr, i32 }
          cleanup
  %24 = getelementptr inbounds nuw i8, ptr %4, i64 32
  call void @_ZNSt7__cxx1112basic_stringIcSt11char_traitsIcESaIcEED1Ev(ptr noundef nonnull align 8 dereferenceable(32) %24) #15
  call void @_ZNSt7__cxx1112basic_stringIcSt11char_traitsIcESaIcEED1Ev(ptr noundef nonnull align 8 dereferenceable(32) %4) #15
  resume { ptr, i32 } %23

25:                                               ; preds = %14
  %26 = load ptr, ptr %.0.i, align 8
  %27 = getelementptr inbounds i8, ptr %26, i64 104
  %28 = load ptr, ptr %27, align 8
  %29 = call noundef zeroext i1 %28(ptr noundef nonnull align 8 dereferenceable(8) %.0.i, ptr noundef nonnull align 8 dereferenceable(32) %1)
  br label %30

30:                                               ; preds = %_ZNK32pxrInternal_v0_24__pxrReserved__12_GLOBAL__N_120_DispatchingResolver12_GetResolverERKNSt7__cxx1112basic_stringIcSt11char_traitsIcESaIcEEEPPKNS0_13_ResolverInfoE.exit, %25, %_ZNK32pxrInternal_v0_24__pxrReserved__10ArResolver22IsContextDependentPathERKNSt7__cxx1112basic_stringIcSt11char_traitsIcESaIcEEE.exit
  %.0 = phi i1 [ %20, %_ZNK32pxrInternal_v0_24__pxrReserved__10ArResolver22IsContextDependentPathERKNSt7__cxx1112basic_stringIcSt11char_traitsIcESaIcEEE.exit ], [ %29, %25 ], [ false, %_ZNK32pxrInternal_v0_24__pxrReserved__12_GLOBAL__N_120_DispatchingResolver12_GetResolverERKNSt7__cxx1112basic_stringIcSt11char_traitsIcESaIcEEEPPKNS0_13_ResolverInfoE.exit ]
  ret i1 %.0
}